; Function Attrs: mustprogress nounwind uwtable
define noundef zeroext i1 @_ZN7glslang14TParseVersions17extensionTurnedOnEPKc(ptr noundef nonnull align 8 dereferenceable(224) %0, ptr noundef %1) unnamed_addr #0 align 2 {
  %3 = load ptr, ptr %0, align 8
  %4 = getelementptr inbounds i8, ptr %3, i64 56
  %5 = load ptr, ptr %4, align 8
  %6 = tail call noundef i32 %5(ptr noundef nonnull align 8 dereferenceable(224) %0, ptr noundef %1) #15
  %.off = add i32 %6, -1
  %switch = icmp ult i32 %.off, 3
  ret i1 %switch
}